; ModuleID = 'source-C-CXX/50/185.c'
source_filename = "source-C-CXX/50/185.c"
target datalayout = "e-m:e-p270:32:32-p271:32:32-p272:64:64-i64:64-f80:128-n8:16:32:64-S128"
target triple = "x86_64-pc-linux-gnu"

@.str = private unnamed_addr constant [4 x i8] c"%d\0A\00", align 1
@str = private unnamed_addr constant [3 x i8] c"NO\00", align 1

; Function Attrs: nounwind sspstrong uwtable
define dso_local i32 @main() local_unnamed_addr #0 {
  %1 = alloca i32, align 4
  %2 = alloca [504 x i32], align 16
  %3 = alloca [504 x i8], align 16
  %4 = alloca [600 x [10 x i8]], align 16
  %5 = bitcast i32* %1 to i8*
  call void @llvm.lifetime.start.p0i8(i64 4, i8* nonnull %5) #9
  %6 = bitcast [504 x i32]* %2 to i8*
  call void @llvm.lifetime.start.p0i8(i64 2016, i8* nonnull %6) #9
  call void @llvm.memset.p0i8.i64(i8* noundef nonnull align 16 dereferenceable(2016) %6, i8 0, i64 2016, i1 false)
  %7 = getelementptr inbounds [504 x i8], [504 x i8]* %3, i64 0, i64 0
  call void @llvm.lifetime.start.p0i8(i64 504, i8* nonnull %7) #9
  call void @llvm.memset.p0i8.i64(i8* noundef nonnull align 16 dereferenceable(504) %7, i8 0, i64 504, i1 false)
  %8 = getelementptr inbounds [600 x [10 x i8]], [600 x [10 x i8]]* %4, i64 0, i64 0, i64 0
  call void @llvm.lifetime.start.p0i8(i64 6000, i8* nonnull %8) #9
  call void @llvm.memset.p0i8.i64(i8* noundef nonnull align 16 dereferenceable(6000) %8, i8 0, i64 6000, i1 false)
  %9 = call i32 (i8*, ...) @__isoc99_scanf(i8* getelementptr inbounds ([4 x i8], [4 x i8]* @.str, i64 0, i64 0), i32* nonnull %1)
  %10 = call i32 (i8*, ...) bitcast (i32 (...)* @gets to i32 (i8*, ...)*)(i8* nonnull %7) #9
  %11 = call i64 @strlen(i8* noundef nonnull %7) #10
  %12 = trunc i64 %11 to i32
  %13 = load i32, i32* %1, align 4, !tbaa !5
  %14 = icmp sgt i32 %13, %12
  br i1 %14, label %163, label %15

15:                                               ; preds = %0
  %16 = icmp sgt i32 %13, 0
  br i1 %16, label %17, label %56

17:                                               ; preds = %15
  %18 = zext i32 %13 to i64
  %19 = add i32 %12, 1
  %20 = sub i32 %19, %13
  %21 = zext i32 %20 to i64
  %22 = add nsw i64 %21, -1
  %23 = and i64 %21, 3
  %24 = icmp ult i64 %22, 3
  br i1 %24, label %44, label %25

25:                                               ; preds = %17
  %26 = and i64 %21, 4294967292
  br label %27

27:                                               ; preds = %27, %25
  %28 = phi i64 [ 0, %25 ], [ %41, %27 ]
  %29 = phi i64 [ %26, %25 ], [ %42, %27 ]
  %30 = getelementptr [600 x [10 x i8]], [600 x [10 x i8]]* %4, i64 0, i64 %28, i64 0
  %31 = getelementptr [504 x i8], [504 x i8]* %3, i64 0, i64 %28
  call void @llvm.memcpy.p0i8.p0i8.i64(i8* align 8 %30, i8* align 4 %31, i64 %18, i1 false)
  %32 = or i64 %28, 1
  %33 = getelementptr [600 x [10 x i8]], [600 x [10 x i8]]* %4, i64 0, i64 %32, i64 0
  %34 = getelementptr [504 x i8], [504 x i8]* %3, i64 0, i64 %32
  call void @llvm.memcpy.p0i8.p0i8.i64(i8* align 2 %33, i8* align 1 %34, i64 %18, i1 false)
  %35 = or i64 %28, 2
  %36 = getelementptr [600 x [10 x i8]], [600 x [10 x i8]]* %4, i64 0, i64 %35, i64 0
  %37 = getelementptr [504 x i8], [504 x i8]* %3, i64 0, i64 %35
  call void @llvm.memcpy.p0i8.p0i8.i64(i8* align 4 %36, i8* align 2 %37, i64 %18, i1 false)
  %38 = or i64 %28, 3
  %39 = getelementptr [600 x [10 x i8]], [600 x [10 x i8]]* %4, i64 0, i64 %38, i64 0
  %40 = getelementptr [504 x i8], [504 x i8]* %3, i64 0, i64 %38
  call void @llvm.memcpy.p0i8.p0i8.i64(i8* align 2 %39, i8* align 1 %40, i64 %18, i1 false)
  %41 = add nuw nsw i64 %28, 4
  %42 = add i64 %29, -4
  %43 = icmp eq i64 %42, 0
  br i1 %43, label %44, label %27, !llvm.loop !9

44:                                               ; preds = %27, %17
  %45 = phi i64 [ 0, %17 ], [ %41, %27 ]
  %46 = icmp eq i64 %23, 0
  br i1 %46, label %55, label %47

47:                                               ; preds = %44, %47
  %48 = phi i64 [ %52, %47 ], [ %45, %44 ]
  %49 = phi i64 [ %53, %47 ], [ %23, %44 ]
  %50 = getelementptr [600 x [10 x i8]], [600 x [10 x i8]]* %4, i64 0, i64 %48, i64 0
  %51 = getelementptr [504 x i8], [504 x i8]* %3, i64 0, i64 %48
  call void @llvm.memcpy.p0i8.p0i8.i64(i8* align 2 %50, i8* align 1 %51, i64 %18, i1 false)
  %52 = add nuw nsw i64 %48, 1
  %53 = add i64 %49, -1
  %54 = icmp eq i64 %53, 0
  br i1 %54, label %55, label %47, !llvm.loop !11

55:                                               ; preds = %47, %44
  br i1 %14, label %163, label %56

56:                                               ; preds = %15, %55
  %57 = add i32 %12, 1
  %58 = sub i32 %57, %13
  %59 = zext i32 %58 to i64
  br label %60

60:                                               ; preds = %56, %148
  %61 = phi i64 [ 0, %56 ], [ %149, %148 ]
  %62 = getelementptr inbounds [600 x [10 x i8]], [600 x [10 x i8]]* %4, i64 0, i64 %61, i64 0
  %63 = icmp eq i64 %61, 0
  br i1 %63, label %148, label %136

64:                                               ; preds = %148
  br i1 %14, label %163, label %65

65:                                               ; preds = %64
  %66 = add i32 %12, 1
  %67 = sub i32 %66, %13
  %68 = zext i32 %67 to i64
  %69 = icmp ult i32 %58, 8
  br i1 %69, label %133, label %70

70:                                               ; preds = %65
  %71 = and i64 %59, 4294967288
  %72 = add nsw i64 %71, -8
  %73 = lshr exact i64 %72, 3
  %74 = add nuw nsw i64 %73, 1
  %75 = and i64 %74, 1
  %76 = icmp eq i64 %72, 0
  br i1 %76, label %108, label %77

77:                                               ; preds = %70
  %78 = and i64 %74, 4611686018427387902
  br label %79

79:                                               ; preds = %79, %77
  %80 = phi i64 [ 0, %77 ], [ %105, %79 ]
  %81 = phi <4 x i32> [ zeroinitializer, %77 ], [ %103, %79 ]
  %82 = phi <4 x i32> [ zeroinitializer, %77 ], [ %104, %79 ]
  %83 = phi i64 [ %78, %77 ], [ %106, %79 ]
  %84 = getelementptr inbounds [504 x i32], [504 x i32]* %2, i64 0, i64 %80
  %85 = bitcast i32* %84 to <4 x i32>*
  %86 = load <4 x i32>, <4 x i32>* %85, align 16, !tbaa !5
  %87 = getelementptr inbounds i32, i32* %84, i64 4
  %88 = bitcast i32* %87 to <4 x i32>*
  %89 = load <4 x i32>, <4 x i32>* %88, align 16, !tbaa !5
  %90 = icmp slt <4 x i32> %81, %86
  %91 = icmp slt <4 x i32> %82, %89
  %92 = select <4 x i1> %90, <4 x i32> %86, <4 x i32> %81
  %93 = select <4 x i1> %91, <4 x i32> %89, <4 x i32> %82
  %94 = or i64 %80, 8
  %95 = getelementptr inbounds [504 x i32], [504 x i32]* %2, i64 0, i64 %94
  %96 = bitcast i32* %95 to <4 x i32>*
  %97 = load <4 x i32>, <4 x i32>* %96, align 16, !tbaa !5
  %98 = getelementptr inbounds i32, i32* %95, i64 4
  %99 = bitcast i32* %98 to <4 x i32>*
  %100 = load <4 x i32>, <4 x i32>* %99, align 16, !tbaa !5
  %101 = icmp slt <4 x i32> %92, %97
  %102 = icmp slt <4 x i32> %93, %100
  %103 = select <4 x i1> %101, <4 x i32> %97, <4 x i32> %92
  %104 = select <4 x i1> %102, <4 x i32> %100, <4 x i32> %93
  %105 = add nuw i64 %80, 16
  %106 = add i64 %83, -2
  %107 = icmp eq i64 %106, 0
  br i1 %107, label %108, label %79, !llvm.loop !13

108:                                              ; preds = %79, %70
  %109 = phi <4 x i32> [ undef, %70 ], [ %103, %79 ]
  %110 = phi <4 x i32> [ undef, %70 ], [ %104, %79 ]
  %111 = phi i64 [ 0, %70 ], [ %105, %79 ]
  %112 = phi <4 x i32> [ zeroinitializer, %70 ], [ %103, %79 ]
  %113 = phi <4 x i32> [ zeroinitializer, %70 ], [ %104, %79 ]
  %114 = icmp eq i64 %75, 0
  br i1 %114, label %126, label %115

115:                                              ; preds = %108
  %116 = getelementptr inbounds [504 x i32], [504 x i32]* %2, i64 0, i64 %111
  %117 = bitcast i32* %116 to <4 x i32>*
  %118 = load <4 x i32>, <4 x i32>* %117, align 16, !tbaa !5
  %119 = getelementptr inbounds i32, i32* %116, i64 4
  %120 = bitcast i32* %119 to <4 x i32>*
  %121 = load <4 x i32>, <4 x i32>* %120, align 16, !tbaa !5
  %122 = icmp slt <4 x i32> %113, %121
  %123 = select <4 x i1> %122, <4 x i32> %121, <4 x i32> %113
  %124 = icmp slt <4 x i32> %112, %118
  %125 = select <4 x i1> %124, <4 x i32> %118, <4 x i32> %112
  br label %126

126:                                              ; preds = %108, %115
  %127 = phi <4 x i32> [ %109, %108 ], [ %125, %115 ]
  %128 = phi <4 x i32> [ %110, %108 ], [ %123, %115 ]
  %129 = icmp sgt <4 x i32> %127, %128
  %130 = select <4 x i1> %129, <4 x i32> %127, <4 x i32> %128
  %131 = call i32 @llvm.vector.reduce.smax.v4i32(<4 x i32> %130)
  %132 = icmp eq i64 %71, %59
  br i1 %132, label %160, label %133

133:                                              ; preds = %65, %126
  %134 = phi i64 [ 0, %65 ], [ %71, %126 ]
  %135 = phi i32 [ 0, %65 ], [ %131, %126 ]
  br label %151

136:                                              ; preds = %60, %145
  %137 = phi i64 [ %146, %145 ], [ 0, %60 ]
  %138 = getelementptr inbounds [600 x [10 x i8]], [600 x [10 x i8]]* %4, i64 0, i64 %137, i64 0
  %139 = call i32 @strcmp(i8* noundef nonnull %138, i8* noundef nonnull %62) #10
  %140 = icmp eq i32 %139, 0
  br i1 %140, label %141, label %145

141:                                              ; preds = %136
  %142 = getelementptr inbounds [504 x i32], [504 x i32]* %2, i64 0, i64 %137
  %143 = load i32, i32* %142, align 4, !tbaa !5
  %144 = add nsw i32 %143, 1
  store i32 %144, i32* %142, align 4, !tbaa !5
  br label %145

145:                                              ; preds = %136, %141
  %146 = add nuw nsw i64 %137, 1
  %147 = icmp eq i64 %146, %61
  br i1 %147, label %148, label %136, !llvm.loop !15

148:                                              ; preds = %145, %60
  %149 = add nuw nsw i64 %61, 1
  %150 = icmp eq i64 %149, %59
  br i1 %150, label %64, label %60, !llvm.loop !16

151:                                              ; preds = %133, %151
  %152 = phi i64 [ %158, %151 ], [ %134, %133 ]
  %153 = phi i32 [ %157, %151 ], [ %135, %133 ]
  %154 = getelementptr inbounds [504 x i32], [504 x i32]* %2, i64 0, i64 %152
  %155 = load i32, i32* %154, align 4, !tbaa !5
  %156 = icmp slt i32 %153, %155
  %157 = select i1 %156, i32 %155, i32 %153
  %158 = add nuw nsw i64 %152, 1
  %159 = icmp eq i64 %158, %68
  br i1 %159, label %160, label %151, !llvm.loop !17

160:                                              ; preds = %151, %126
  %161 = phi i32 [ %131, %126 ], [ %157, %151 ]
  %162 = icmp eq i32 %161, 0
  br i1 %162, label %163, label %165

163:                                              ; preds = %0, %55, %64, %160
  %164 = call i32 @puts(i8* nonnull dereferenceable(1) getelementptr inbounds ([3 x i8], [3 x i8]* @str, i64 0, i64 0))
  br label %186

165:                                              ; preds = %160
  %166 = add nsw i32 %161, 1
  %167 = call i32 (i8*, ...) @printf(i8* nonnull dereferenceable(1) getelementptr inbounds ([4 x i8], [4 x i8]* @.str, i64 0, i64 0), i32 %166)
  %168 = load i32, i32* %1, align 4, !tbaa !5
  %169 = icmp sgt i32 %168, %12
  br i1 %169, label %186, label %170

170:                                              ; preds = %165, %180
  %171 = phi i32 [ %181, %180 ], [ %168, %165 ]
  %172 = phi i64 [ %182, %180 ], [ 0, %165 ]
  %173 = getelementptr inbounds [504 x i32], [504 x i32]* %2, i64 0, i64 %172
  %174 = load i32, i32* %173, align 4, !tbaa !5
  %175 = icmp eq i32 %174, %161
  br i1 %175, label %176, label %180

176:                                              ; preds = %170
  %177 = getelementptr inbounds [600 x [10 x i8]], [600 x [10 x i8]]* %4, i64 0, i64 %172, i64 0
  %178 = call i32 @puts(i8* nonnull %177)
  %179 = load i32, i32* %1, align 4, !tbaa !5
  br label %180

180:                                              ; preds = %170, %176
  %181 = phi i32 [ %171, %170 ], [ %179, %176 ]
  %182 = add nuw nsw i64 %172, 1
  %183 = sub nsw i32 %12, %181
  %184 = sext i32 %183 to i64
  %185 = icmp slt i64 %172, %184
  br i1 %185, label %170, label %186, !llvm.loop !19

186:                                              ; preds = %180, %165, %163
  call void @llvm.lifetime.end.p0i8(i64 6000, i8* nonnull %8) #9
  call void @llvm.lifetime.end.p0i8(i64 504, i8* nonnull %7) #9
  call void @llvm.lifetime.end.p0i8(i64 2016, i8* nonnull %6) #9
  call void @llvm.lifetime.end.p0i8(i64 4, i8* nonnull %5) #9
  ret i32 0
}

; Function Attrs: argmemonly mustprogress nofree nosync nounwind willreturn
declare void @llvm.lifetime.start.p0i8(i64 immarg, i8* nocapture) #1

; Function Attrs: argmemonly mustprogress nofree nounwind willreturn writeonly
declare void @llvm.memset.p0i8.i64(i8* nocapture writeonly, i8, i64, i1 immarg) #2

; Function Attrs: nofree nounwind
declare noundef i32 @__isoc99_scanf(i8* nocapture noundef readonly, ...) local_unnamed_addr #3

declare i32 @gets(...) local_unnamed_addr #4

; Function Attrs: argmemonly mustprogress nofree nounwind readonly willreturn
declare i64 @strlen(i8* nocapture) local_unnamed_addr #5

; Function Attrs: argmemonly mustprogress nofree nounwind readonly willreturn
declare i32 @strcmp(i8* nocapture, i8* nocapture) local_unnamed_addr #5

; Function Attrs: nofree nounwind
declare noundef i32 @printf(i8* nocapture noundef readonly, ...) local_unnamed_addr #3

; Function Attrs: argmemonly mustprogress nofree nosync nounwind willreturn
declare void @llvm.lifetime.end.p0i8(i64 immarg, i8* nocapture) #1

; Function Attrs: nofree nounwind
declare noundef i32 @puts(i8* nocapture noundef readonly) local_unnamed_addr #6

; Function Attrs: argmemonly nofree nounwind willreturn
declare void @llvm.memcpy.p0i8.p0i8.i64(i8* noalias nocapture writeonly, i8* noalias nocapture readonly, i64, i1 immarg) #7

; Function Attrs: nofree nosync nounwind readnone willreturn
declare i32 @llvm.vector.reduce.smax.v4i32(<4 x i32>) #8


!llvm.module.flags = !{!0, !1, !2, !3}
!llvm.ident = !{!4}

!0 = !{i32 1, !"wchar_size", i32 4}
!1 = !{i32 7, !"PIC Level", i32 2}
!2 = !{i32 7, !"PIE Level", i32 2}
!3 = !{i32 7, !"uwtable", i32 1}
!4 = !{!"clang version 13.0.0"}
!5 = !{!6, !6, i64 0}
!6 = !{!"int", !7, i64 0}
!7 = !{!"omnipotent char", !8, i64 0}
!8 = !{!"Simple C/C++ TBAA"}
!9 = distinct !{!9, !10}
!10 = !{!"llvm.loop.mustprogress"}
!11 = distinct !{!11, !12}
!12 = !{!"llvm.loop.unroll.disable"}
!13 = distinct !{!13, !10, !14}
!14 = !{!"llvm.loop.isvectorized", i32 1}
!15 = distinct !{!15, !10}
!16 = distinct !{!16, !10}
!17 = distinct !{!17, !10, !18, !14}
!18 = !{!"llvm.loop.unroll.runtime.disable"}
!19 = distinct !{!19, !10}
